; Function Attrs: null_pointer_is_valid sspstrong uwtable
define internal noundef zeroext i16 @de_nas_5gs_mm_5gmm_cause(ptr noundef %0, ptr noundef %1, ptr noundef readonly captures(none) %2, i32 noundef %3, i32 %4, ptr readnone captures(none) %5, i32 %6) #0 {
  %8 = alloca i32, align 4
  call void @llvm.lifetime.start.p0(i64 4, ptr nonnull %8) #12
  %9 = load i32, ptr @hf_nas_5gs_mm_5gmm_cause, align 4
  %10 = call ptr @proto_tree_add_item_ret_uint(ptr noundef %1, i32 noundef %9, ptr noundef %0, i32 noundef %3, i32 noundef 1, i32 noundef 0, ptr noundef nonnull %8)
  %11 = getelementptr inbounds nuw i8, ptr %2, i64 8
  %12 = load ptr, ptr %11, align 8
  %13 = load i32, ptr %8, align 4
  %14 = call ptr @val_to_str_const(i32 noundef %13, ptr noundef nonnull @nas_5gs_mm_cause_vals, ptr noundef nonnull @.str.49)
  call void (ptr, i32, ptr, ...) @col_append_fstr(ptr noundef %12, i32 noundef 25, ptr noundef nonnull @.str.1640, ptr noundef %14)
  call void @llvm.lifetime.end.p0(i64 4, ptr nonnull %8) #12
  ret i16 1
}